target datalayout = "e-m:e-p270:32:32-p271:32:32-p272:64:64-i64:64-i128:128-f80:128-n8:16:32:64-S128"
target triple = "x86_64-pc-linux-gnu"

%"class.cmsys::SystemInformationImplementation" = type <{ i32, %"struct.cmsys::SystemInformationImplementation::CPUFeatures", %"struct.cmsys::SystemInformationImplementation::ID", float, i32, i32, [4 x i8], %"class.std::__cxx11::basic_string", i64, i64, i64, i64, i64, %"class.std::__cxx11::basic_string", %"class.std::__cxx11::basic_string", %"class.std::__cxx11::basic_string", %"class.std::__cxx11::basic_string", %"class.std::__cxx11::basic_string", i8, [7 x i8] }>
%"struct.cmsys::SystemInformationImplementation::CPUFeatures" = type { i8, i8, i8, i8, i8, i8, i8, i8, i8, i8, i8, i8, i8, i32, i32, i32, i32, %"struct.cmsys::SystemInformationImplementation::CPUExtendedFeatures" }
%"struct.cmsys::SystemInformationImplementation::CPUExtendedFeatures" = type { i8, i8, i8, i8, i8, i32, i32, %"struct.cmsys::SystemInformationImplementation::CPUPowerManagement" }
%"struct.cmsys::SystemInformationImplementation::CPUPowerManagement" = type { i8, i8, i8 }
%"struct.cmsys::SystemInformationImplementation::ID" = type { i32, i32, i32, i32, i32, i32, %"class.std::__cxx11::basic_string", %"class.std::__cxx11::basic_string", %"class.std::__cxx11::basic_string", %"class.std::__cxx11::basic_string" }
%"class.std::__cxx11::basic_string" = type { %"struct.std::__cxx11::basic_string<char>::_Alloc_hider", i64, %union.anon }
%"struct.std::__cxx11::basic_string<char>::_Alloc_hider" = type { ptr }
%union.anon = type { i64, [8 x i8] }

; Function Attrs: mustprogress nounwind uwtable
define dso_local noundef zeroext i1 @_ZN5cmsys31SystemInformationImplementation23RetrieveCPUCacheDetailsEv(ptr noundef nonnull align 8 dereferenceable(457) %0) #7 align 2 {
  %2 = alloca ptr, align 8
  store ptr %0, ptr %2, align 8, !tbaa !12
  %3 = load ptr, ptr %2, align 8
  %4 = getelementptr inbounds nuw %"class.cmsys::SystemInformationImplementation", ptr %3, i32 0, i32 1
  %5 = getelementptr inbounds nuw %"struct.cmsys::SystemInformationImplementation::CPUFeatures", ptr %4, i32 0, i32 14
  %6 = load i32, ptr %5, align 4, !tbaa !31
  %7 = icmp eq i32 %6, -1
  br i1 %7, label %8, label %13

8:                                                ; preds = %1
  %9 = getelementptr inbounds nuw %"class.cmsys::SystemInformationImplementation", ptr %3, i32 0, i32 1
  %10 = getelementptr inbounds nuw %"struct.cmsys::SystemInformationImplementation::CPUFeatures", ptr %9, i32 0, i32 15
  %11 = load i32, ptr %10, align 4, !tbaa !36
  %12 = icmp eq i32 %11, -1
  br label %13

13:                                               ; preds = %8, %1
  %14 = phi i1 [ false, %1 ], [ %12, %8 ]
  %15 = select i1 %14, i1 false, i1 true
  ret i1 %15
}