; Function Attrs: mustprogress nofree norecurse nosync nounwind willreturn memory(argmem: read) uwtable
define dso_local noundef zeroext i1 @_ZN5cmsys31SystemInformationImplementation23RetrieveCPUCacheDetailsEv(ptr noundef nonnull readonly align 8 captures(none) dereferenceable(457) %0) local_unnamed_addr #8 align 2 {
  %2 = getelementptr inbounds nuw i8, ptr %0, i64 24
  %3 = load i32, ptr %2, align 8, !tbaa !71
  %4 = icmp ne i32 %3, -1
  %5 = getelementptr inbounds nuw i8, ptr %0, i64 28
  %6 = load i32, ptr %5, align 4
  %7 = icmp ne i32 %6, -1
  %not. = select i1 %4, i1 true, i1 %7
  ret i1 %not.
}